target datalayout = "e-m:e-p270:32:32-p271:32:32-p272:64:64-i64:64-i128:128-f80:128-n8:16:32:64-S128"
target triple = "x86_64-pc-linux-gnu"

; Function Attrs: inlinehint nounwind uwtable
define internal zeroext i1 @can_assume_(i32 noundef %0) #2 {
  %2 = alloca i32, align 4
  store i32 %0, ptr %2, align 4
  %3 = load i32, ptr %2, align 4
  %4 = and i32 0, %3
  %5 = icmp ne i32 %4, 0
  ret i1 %5
}

; Function Attrs: nounwind uwtable
define dso_local i32 @fdt_check_node_offset_(ptr noundef %0, i32 noundef %1) #0 {
  %3 = alloca i32, align 4
  %4 = alloca ptr, align 8
  %5 = alloca i32, align 4
  store ptr %0, ptr %4, align 8
  store i32 %1, ptr %5, align 4
  %6 = call zeroext i1 @can_assume_(i32 noundef 2)
  br i1 %6, label %16, label %7

7:                                                ; preds = %2
  %8 = load i32, ptr %5, align 4
  %9 = icmp slt i32 %8, 0
  br i1 %9, label %15, label %10

10:                                               ; preds = %7
  %11 = load i32, ptr %5, align 4
  %12 = sext i32 %11 to i64
  %13 = urem i64 %12, 4
  %14 = icmp ne i64 %13, 0
  br i1 %14, label %15, label %16

15:                                               ; preds = %10, %7
  store i32 -4, ptr %3, align 4
  br label %24

16:                                               ; preds = %10, %2
  %17 = load ptr, ptr %4, align 8
  %18 = load i32, ptr %5, align 4
  %19 = call i32 @fdt_next_tag(ptr noundef %17, i32 noundef %18, ptr noundef %5)
  %20 = icmp ne i32 %19, 1
  br i1 %20, label %21, label %22

21:                                               ; preds = %16
  store i32 -4, ptr %3, align 4
  br label %24

22:                                               ; preds = %16
  %23 = load i32, ptr %5, align 4
  store i32 %23, ptr %3, align 4
  br label %24

24:                                               ; preds = %22, %21, %15
  %25 = load i32, ptr %3, align 4
  ret i32 %25
}

; Function Attrs: nounwind uwtable
define dso_local i32 @fdt_next_node(ptr noundef %0, i32 noundef %1, ptr noundef %2) #0 {
  %4 = alloca i32, align 4
  %5 = alloca ptr, align 8
  %6 = alloca i32, align 4
  %7 = alloca ptr, align 8
  %8 = alloca i32, align 4
  %9 = alloca i32, align 4
  %10 = alloca i32, align 4
  store ptr %0, ptr %5, align 8
  store i32 %1, ptr %6, align 4
  store ptr %2, ptr %7, align 8
  call void @llvm.lifetime.start.p0(i64 4, ptr %8) #5
  store i32 0, ptr %8, align 4
  call void @llvm.lifetime.start.p0(i64 4, ptr %9) #5
  store i32 0, ptr %9, align 4, !annotation !4
  %11 = load i32, ptr %6, align 4
  %12 = icmp sge i32 %11, 0
  br i1 %12, label %13, label %21

13:                                               ; preds = %3
  %14 = load ptr, ptr %5, align 8
  %15 = load i32, ptr %6, align 4
  %16 = call i32 @fdt_check_node_offset_(ptr noundef %14, i32 noundef %15)
  store i32 %16, ptr %8, align 4
  %17 = icmp slt i32 %16, 0
  br i1 %17, label %18, label %20

18:                                               ; preds = %13
  %19 = load i32, ptr %8, align 4
  store i32 %19, ptr %4, align 4
  store i32 1, ptr %10, align 4
  br label %66

20:                                               ; preds = %13
  br label %21

21:                                               ; preds = %20, %3
  br label %22

22:                                               ; preds = %61, %21
  %23 = load i32, ptr %8, align 4
  store i32 %23, ptr %6, align 4
  %24 = load ptr, ptr %5, align 8
  %25 = load i32, ptr %6, align 4
  %26 = call i32 @fdt_next_tag(ptr noundef %24, i32 noundef %25, ptr noundef %8)
  store i32 %26, ptr %9, align 4
  %27 = load i32, ptr %9, align 4
  switch i32 %27, label %60 [
    i32 3, label %28
    i32 4, label %28
    i32 1, label %29
    i32 2, label %37
    i32 9, label %48
  ]

28:                                               ; preds = %22, %22
  br label %60

29:                                               ; preds = %22
  %30 = load ptr, ptr %7, align 8
  %31 = icmp ne ptr %30, null
  br i1 %31, label %32, label %36

32:                                               ; preds = %29
  %33 = load ptr, ptr %7, align 8
  %34 = load i32, ptr %33, align 4
  %35 = add i32 %34, 1
  store i32 %35, ptr %33, align 4
  br label %36

36:                                               ; preds = %32, %29
  br label %60

37:                                               ; preds = %22
  %38 = load ptr, ptr %7, align 8
  %39 = icmp ne ptr %38, null
  br i1 %39, label %40, label %47

40:                                               ; preds = %37
  %41 = load ptr, ptr %7, align 8
  %42 = load i32, ptr %41, align 4
  %43 = add i32 %42, -1
  store i32 %43, ptr %41, align 4
  %44 = icmp slt i32 %43, 0
  br i1 %44, label %45, label %47

45:                                               ; preds = %40
  %46 = load i32, ptr %8, align 4
  store i32 %46, ptr %4, align 4
  store i32 1, ptr %10, align 4
  br label %66

47:                                               ; preds = %40, %37
  br label %60

48:                                               ; preds = %22
  %49 = load i32, ptr %8, align 4
  %50 = icmp sge i32 %49, 0
  br i1 %50, label %57, label %51

51:                                               ; preds = %48
  %52 = load i32, ptr %8, align 4
  %53 = icmp eq i32 %52, -8
  br i1 %53, label %54, label %58

54:                                               ; preds = %51
  %55 = load ptr, ptr %7, align 8
  %56 = icmp ne ptr %55, null
  br i1 %56, label %58, label %57

57:                                               ; preds = %54, %48
  store i32 -1, ptr %4, align 4
  store i32 1, ptr %10, align 4
  br label %66

58:                                               ; preds = %54, %51
  %59 = load i32, ptr %8, align 4
  store i32 %59, ptr %4, align 4
  store i32 1, ptr %10, align 4
  br label %66

60:                                               ; preds = %22, %47, %36, %28
  br label %61

61:                                               ; preds = %60
  %62 = load i32, ptr %9, align 4
  %63 = icmp ne i32 %62, 1
  br i1 %63, label %22, label %64, !llvm.loop !7

64:                                               ; preds = %61
  %65 = load i32, ptr %6, align 4
  store i32 %65, ptr %4, align 4
  store i32 1, ptr %10, align 4
  br label %66

66:                                               ; preds = %64, %58, %57, %45, %18
  call void @llvm.lifetime.end.p0(i64 4, ptr %9) #5
  call void @llvm.lifetime.end.p0(i64 4, ptr %8) #5
  %67 = load i32, ptr %4, align 4
  ret i32 %67
}